; Function Attrs: mustprogress uwtable
define noundef zeroext i1 @_ZNK11llama_vocab4impl9is_unusedEi(ptr noundef nonnull readonly align 8 captures(none) dereferenceable(360) %0, i32 noundef %1) local_unnamed_addr #0 align 2 {
  %3 = getelementptr inbounds nuw i8, ptr %0, i64 4
  %4 = load i32, ptr %3, align 4, !tbaa !15
  %.not = icmp eq i32 %4, 0
  br i1 %.not, label %5, label %6

5:                                                ; preds = %2
  tail call void (ptr, i32, ptr, ...) @ggml_abort(ptr noundef nonnull @.str.62, i32 noundef 2085, ptr noundef nonnull @.str.63, ptr noundef nonnull @.str.118) #31
  unreachable

6:                                                ; preds = %2
  %7 = getelementptr inbounds nuw i8, ptr %0, i64 144
  %8 = sext i32 %1 to i64
  %9 = load ptr, ptr %7, align 8, !tbaa !71
  %10 = getelementptr inbounds nuw %"struct.llama_vocab::token_data", ptr %9, i64 %8, i32 2
  %11 = load i32, ptr %10, align 4, !tbaa !111
  %12 = and i32 %11, 2
  %13 = icmp ne i32 %12, 0
  ret i1 %13
}